; Function Attrs: mustprogress nounwind uwtable
define internal void @_ZN5clang4ento5check8PostStmtINS_8CallExprEE10_checkStmtIN12_GLOBAL__N_121ObjCContainersCheckerEEEvPvPKNS_4StmtERNS0_14CheckerContextE(ptr nocapture readnone %0, ptr noundef %1, ptr noundef nonnull align 8 dereferenceable(81) %2) #0 align 2 {
  %4 = tail call noundef ptr @_ZNK5clang4ento14CheckerContext13getCalleeDeclEPKNS_8CallExprE(ptr noundef nonnull align 8 dereferenceable(81) %2, ptr noundef %1) #18
  %5 = tail call { ptr, i64 } @_ZNK5clang4ento14CheckerContext13getCalleeNameEPKNS_12FunctionDeclE(ptr noundef nonnull align 8 dereferenceable(81) %2, ptr noundef %4) #18
  %6 = extractvalue { ptr, i64 } %5, 0
  %7 = extractvalue { ptr, i64 } %5, 1
  %8 = icmp eq i64 %7, 0
  br i1 %8, label %_ZNK12_GLOBAL__N_121ObjCContainersChecker13checkPostStmtEPKN5clang8CallExprERNS1_4ento14CheckerContextE.exit, label %9

9:                                                ; preds = %3
  %10 = getelementptr inbounds nuw i8, ptr %1, i64 16
  %11 = load i32, ptr %10, align 8
  %12 = icmp eq i32 %11, 0
  br i1 %12, label %_ZNK12_GLOBAL__N_121ObjCContainersChecker13checkPostStmtEPKN5clang8CallExprERNS1_4ento14CheckerContextE.exit, label %13

13:                                               ; preds = %9
  switch i64 %7, label %_ZNK12_GLOBAL__N_121ObjCContainersChecker13checkPostStmtEPKN5clang8CallExprERNS1_4ento14CheckerContextE.exit [
    i64 13, label %_ZN4llvmeqENS_9StringRefES0_.exit.i
    i64 15, label %_ZN4llvmeqENS_9StringRefES0_.exit16.i
  ]

_ZN4llvmeqENS_9StringRefES0_.exit.i:              ; preds = %13
  %bcmp.i.i = tail call i32 @bcmp(ptr noundef nonnull dereferenceable(13) %6, ptr noundef nonnull dereferenceable(13) @.str.6, i64 13)
  %14 = icmp ne i32 %bcmp.i.i, 0
  %15 = icmp ult i32 %11, 3
  %or.cond.i = or i1 %15, %14
  br i1 %or.cond.i, label %_ZNK12_GLOBAL__N_121ObjCContainersChecker13checkPostStmtEPKN5clang8CallExprERNS1_4ento14CheckerContextE.exit, label %16

16:                                               ; preds = %_ZN4llvmeqENS_9StringRefES0_.exit.i
  %17 = load i32, ptr %1, align 8
  %18 = lshr i32 %17, 24
  %19 = zext nneg i32 %18 to i64
  %20 = getelementptr inbounds i8, ptr %1, i64 %19
  %21 = getelementptr inbounds i8, ptr %20, i64 8
  %22 = lshr i32 %17, 18
  %23 = and i32 %22, 1
  %24 = zext nneg i32 %23 to i64
  %25 = getelementptr inbounds ptr, ptr %21, i64 %24
  %26 = getelementptr inbounds i8, ptr %25, i64 16
  %27 = load ptr, ptr %26, align 8
  tail call fastcc void @_ZNK12_GLOBAL__N_121ObjCContainersChecker11addSizeInfoEPKN5clang4ExprES4_RNS1_4ento14CheckerContextE(ptr noundef nonnull %1, ptr noundef %27, ptr noundef nonnull align 8 dereferenceable(81) %2)
  br label %_ZNK12_GLOBAL__N_121ObjCContainersChecker13checkPostStmtEPKN5clang8CallExprERNS1_4ento14CheckerContextE.exit

_ZN4llvmeqENS_9StringRefES0_.exit16.i:            ; preds = %13
  %bcmp.i15.i = tail call i32 @bcmp(ptr noundef nonnull dereferenceable(15) %6, ptr noundef nonnull dereferenceable(15) @.str.7, i64 15)
  %28 = icmp eq i32 %bcmp.i15.i, 0
  br i1 %28, label %29, label %_ZNK12_GLOBAL__N_121ObjCContainersChecker13checkPostStmtEPKN5clang8CallExprERNS1_4ento14CheckerContextE.exit

29:                                               ; preds = %_ZN4llvmeqENS_9StringRefES0_.exit16.i
  %30 = load i32, ptr %1, align 8
  %31 = lshr i32 %30, 24
  %32 = zext nneg i32 %31 to i64
  %33 = getelementptr inbounds i8, ptr %1, i64 %32
  %34 = getelementptr inbounds i8, ptr %33, i64 8
  %35 = lshr i32 %30, 18
  %36 = and i32 %35, 1
  %37 = zext nneg i32 %36 to i64
  %38 = getelementptr inbounds ptr, ptr %34, i64 %37
  %39 = load ptr, ptr %38, align 8
  tail call fastcc void @_ZNK12_GLOBAL__N_121ObjCContainersChecker11addSizeInfoEPKN5clang4ExprES4_RNS1_4ento14CheckerContextE(ptr noundef %39, ptr noundef nonnull %1, ptr noundef nonnull align 8 dereferenceable(81) %2)
  br label %_ZNK12_GLOBAL__N_121ObjCContainersChecker13checkPostStmtEPKN5clang8CallExprERNS1_4ento14CheckerContextE.exit

_ZNK12_GLOBAL__N_121ObjCContainersChecker13checkPostStmtEPKN5clang8CallExprERNS1_4ento14CheckerContextE.exit: ; preds = %3, %9, %13, %_ZN4llvmeqENS_9StringRefES0_.exit.i, %16, %_ZN4llvmeqENS_9StringRefES0_.exit16.i, %29
  ret void
}